target datalayout = "e-m:e-p270:32:32-p271:32:32-p272:64:64-i64:64-i128:128-f80:128-n8:16:32:64-S128"
target triple = "x86_64-pc-linux-gnu"

%struct.rb_data_type_struct = type { ptr, %struct.anon, ptr, ptr, i64 }
%struct.anon = type { ptr, ptr, ptr, ptr, [1 x ptr] }
%struct.RTypedData = type { %struct.RBasic, ptr, i64, ptr }
%struct.RBasic = type { i64, i64 }

@cBN = global i64 0, align 8
@ossl_bn_type = internal constant %struct.rb_data_type_struct { ptr @.str.62, %struct.anon { ptr null, ptr @ossl_bn_free, ptr null, ptr null, [1 x ptr] zeroinitializer }, ptr null, ptr null, i64 289 }, align 8
@rb_eRuntimeError = external global i64, align 8
@.str = private unnamed_addr constant [23 x i8] c"BN wasn't initialized!\00", align 1
@rb_eTypeError = external global i64, align 8
@.str.1 = private unnamed_addr constant [32 x i8] c"Cannot convert into OpenSSL::BN\00", align 1

; Function Attrs: inlinehint nounwind sspstrong willreturn memory(none) uwtable
define internal zeroext i1 @RB_IMMEDIATE_P(i64 noundef %0) #4 {
  %2 = alloca i64, align 8
  store i64 %0, ptr %2, align 8, !tbaa !11
  %3 = load i64, ptr %2, align 8, !tbaa !11
  %4 = and i64 %3, 7
  %5 = icmp ne i64 %4, 0
  ret i1 %5
}

; Function Attrs: inlinehint nounwind sspstrong willreturn memory(read) uwtable
define internal i32 @RB_BUILTIN_TYPE(i64 noundef %0) #6 {
  %2 = alloca i64, align 8
  %3 = alloca i64, align 8
  store i64 %0, ptr %2, align 8, !tbaa !11
  call void @llvm.lifetime.start.p0(i64 8, ptr %3) #20
  %4 = load i64, ptr %2, align 8, !tbaa !11
  %5 = inttoptr i64 %4 to ptr
  %6 = getelementptr inbounds nuw %struct.RBasic, ptr %5, i32 0, i32 0
  %7 = load i64, ptr %6, align 8, !tbaa !31
  %8 = and i64 %7, 31
  store i64 %8, ptr %3, align 8, !tbaa !11
  %9 = load i64, ptr %3, align 8, !tbaa !11
  %10 = trunc i64 %9 to i32
  call void @llvm.lifetime.end.p0(i64 8, ptr %3) #20
  ret i32 %10
}

; Function Attrs: inlinehint nounwind sspstrong willreturn memory(none) uwtable
define internal zeroext i1 @RB_SPECIAL_CONST_P(i64 noundef %0) #4 {
  %2 = alloca i64, align 8
  store i64 %0, ptr %2, align 8, !tbaa !11
  %3 = load i64, ptr %2, align 8, !tbaa !11
  %4 = icmp eq i64 %3, 0
  br i1 %4, label %8, label %5

5:                                                ; preds = %1
  %6 = load i64, ptr %2, align 8, !tbaa !11
  %7 = call zeroext i1 @RB_IMMEDIATE_P(i64 noundef %6) #22
  br label %8

8:                                                ; preds = %5, %1
  %9 = phi i1 [ true, %1 ], [ %7, %5 ]
  ret i1 %9
}

; Function Attrs: inlinehint nounwind sspstrong willreturn memory(none) uwtable
define internal zeroext i1 @RB_FIXNUM_P(i64 noundef %0) #4 {
  %2 = alloca i64, align 8
  store i64 %0, ptr %2, align 8, !tbaa !11
  %3 = load i64, ptr %2, align 8, !tbaa !11
  %4 = and i64 %3, 1
  %5 = icmp ne i64 %4, 0
  ret i1 %5
}

; Function Attrs: inlinehint nounwind sspstrong willreturn memory(read) uwtable
define internal zeroext i1 @rb_integer_type_p(i64 noundef %0) #6 {
  %2 = alloca i1, align 1
  %3 = alloca i64, align 8
  store i64 %0, ptr %3, align 8, !tbaa !11
  %4 = load i64, ptr %3, align 8, !tbaa !11
  %5 = call zeroext i1 @RB_FIXNUM_P(i64 noundef %4) #22
  br i1 %5, label %6, label %7

6:                                                ; preds = %1
  store i1 true, ptr %2, align 1
  br label %15

7:                                                ; preds = %1
  %8 = load i64, ptr %3, align 8, !tbaa !11
  %9 = call zeroext i1 @RB_SPECIAL_CONST_P(i64 noundef %8) #22
  br i1 %9, label %10, label %11

10:                                               ; preds = %7
  store i1 false, ptr %2, align 1
  br label %15

11:                                               ; preds = %7
  %12 = load i64, ptr %3, align 8, !tbaa !11
  %13 = call i32 @RB_BUILTIN_TYPE(i64 noundef %12) #23
  %14 = icmp eq i32 %13, 10
  store i1 %14, ptr %2, align 1
  br label %15

15:                                               ; preds = %11, %10, %6
  %16 = load i1, ptr %2, align 1
  ret i1 %16
}

; Function Attrs: inlinehint nounwind sspstrong willreturn memory(none) uwtable
define internal zeroext i1 @RB_NIL_P(i64 noundef %0) #4 {
  %2 = alloca i64, align 8
  store i64 %0, ptr %2, align 8, !tbaa !11
  %3 = load i64, ptr %2, align 8, !tbaa !11
  %4 = icmp eq i64 %3, 4
  ret i1 %4
}

; Function Attrs: nounwind sspstrong uwtable
define internal i64 @try_convert_to_bn(i64 noundef %0) #0 {
  %2 = alloca i64, align 8
  %3 = alloca i64, align 8
  %4 = alloca ptr, align 8
  %5 = alloca i64, align 8
  %6 = alloca i32, align 4
  store i64 %0, ptr %3, align 8, !tbaa !11
  call void @llvm.lifetime.start.p0(i64 8, ptr %4) #20
  call void @llvm.lifetime.start.p0(i64 8, ptr %5) #20
  store i64 4, ptr %5, align 8, !tbaa !11
  %7 = load i64, ptr %3, align 8, !tbaa !11
  %8 = load i64, ptr @cBN, align 8, !tbaa !11
  %9 = call i64 @rb_obj_is_kind_of(i64 noundef %7, i64 noundef %8)
  %10 = icmp ne i64 %9, 0
  br i1 %10, label %11, label %13

11:                                               ; preds = %1
  %12 = load i64, ptr %3, align 8, !tbaa !11
  store i64 %12, ptr %2, align 8
  store i32 1, ptr %6, align 4
  br label %35

13:                                               ; preds = %1
  %14 = load i64, ptr %3, align 8, !tbaa !11
  %15 = call zeroext i1 @rb_integer_type_p(i64 noundef %14) #23
  br i1 %15, label %16, label %33

16:                                               ; preds = %13
  %17 = load i64, ptr @cBN, align 8, !tbaa !11
  %18 = call i64 @rb_data_typed_object_wrap(i64 noundef %17, ptr noundef null, ptr noundef @ossl_bn_type)
  store i64 %18, ptr %5, align 8, !tbaa !11
  %19 = load i64, ptr %3, align 8, !tbaa !11
  %20 = call ptr @integer_to_bnptr(i64 noundef %19, ptr noundef null)
  store ptr %20, ptr %4, align 8, !tbaa !6
  br label %21

21:                                               ; preds = %16
  %22 = load ptr, ptr %4, align 8, !tbaa !6
  %23 = icmp ne ptr %22, null
  br i1 %23, label %26, label %24

24:                                               ; preds = %21
  %25 = load i64, ptr @rb_eRuntimeError, align 8, !tbaa !11
  call void (i64, ptr, ...) @ossl_raise(i64 noundef %25, ptr noundef @.str) #21
  unreachable

26:                                               ; preds = %21
  %27 = load ptr, ptr %4, align 8, !tbaa !6
  %28 = load i64, ptr %5, align 8, !tbaa !11
  %29 = inttoptr i64 %28 to ptr
  %30 = getelementptr inbounds nuw %struct.RTypedData, ptr %29, i32 0, i32 3
  store ptr %27, ptr %30, align 8, !tbaa !13
  br label %31

31:                                               ; preds = %26
  br label %32

32:                                               ; preds = %31
  br label %33

33:                                               ; preds = %32, %13
  %34 = load i64, ptr %5, align 8, !tbaa !11
  store i64 %34, ptr %2, align 8
  store i32 1, ptr %6, align 4
  br label %35

35:                                               ; preds = %33, %11
  call void @llvm.lifetime.end.p0(i64 8, ptr %5) #20
  call void @llvm.lifetime.end.p0(i64 8, ptr %4) #20
  %36 = load i64, ptr %2, align 8
  ret i64 %36
}

; Function Attrs: nounwind sspstrong uwtable
define ptr @ossl_bn_value_ptr(ptr noundef %0) #0 {
  %2 = alloca ptr, align 8
  %3 = alloca i64, align 8
  %4 = alloca ptr, align 8
  store ptr %0, ptr %2, align 8, !tbaa !17
  call void @llvm.lifetime.start.p0(i64 8, ptr %3) #20
  call void @llvm.lifetime.start.p0(i64 8, ptr %4) #20
  %5 = load ptr, ptr %2, align 8, !tbaa !17
  %6 = load volatile i64, ptr %5, align 8, !tbaa !11
  %7 = call i64 @try_convert_to_bn(i64 noundef %6)
  store i64 %7, ptr %3, align 8, !tbaa !11
  %8 = load i64, ptr %3, align 8, !tbaa !11
  %9 = call zeroext i1 @RB_NIL_P(i64 noundef %8) #22
  br i1 %9, label %10, label %12

10:                                               ; preds = %1
  %11 = load i64, ptr @rb_eTypeError, align 8, !tbaa !11
  call void (i64, ptr, ...) @ossl_raise(i64 noundef %11, ptr noundef @.str.1) #21
  unreachable

12:                                               ; preds = %1
  br label %13

13:                                               ; preds = %12
  %14 = load i64, ptr %3, align 8, !tbaa !11
  %15 = call ptr @rb_check_typeddata(i64 noundef %14, ptr noundef @ossl_bn_type)
  store ptr %15, ptr %4, align 8, !tbaa !6
  %16 = load ptr, ptr %4, align 8, !tbaa !6
  %17 = icmp ne ptr %16, null
  br i1 %17, label %20, label %18

18:                                               ; preds = %13
  %19 = load i64, ptr @rb_eRuntimeError, align 8, !tbaa !11
  call void (i64, ptr, ...) @ossl_raise(i64 noundef %19, ptr noundef @.str) #21
  unreachable

20:                                               ; preds = %13
  br label %21

21:                                               ; preds = %20
  br label %22

22:                                               ; preds = %21
  %23 = load i64, ptr %3, align 8, !tbaa !11
  %24 = load ptr, ptr %2, align 8, !tbaa !17
  store volatile i64 %23, ptr %24, align 8, !tbaa !11
  %25 = load ptr, ptr %4, align 8, !tbaa !6
  call void @llvm.lifetime.end.p0(i64 8, ptr %4) #20
  call void @llvm.lifetime.end.p0(i64 8, ptr %3) #20
  ret ptr %25
}