; Function Attrs: nounwind sspstrong uwtable
define nonnull ptr @ossl_bn_value_ptr(ptr noundef %0) local_unnamed_addr #0 {
  %2 = load volatile i64, ptr %0, align 8, !tbaa !6
  %3 = load i64, ptr @cBN, align 8, !tbaa !6
  %4 = tail call i64 @rb_obj_is_kind_of(i64 noundef %2, i64 noundef %3) #11
  %.not.i = icmp eq i64 %4, 0
  br i1 %.not.i, label %5, label %try_convert_to_bn.exit

5:                                                ; preds = %1
  %6 = and i64 %2, 1
  %.not.i.i = icmp eq i64 %6, 0
  br i1 %.not.i.i, label %7, label %rb_integer_type_p.exit.thread.i

7:                                                ; preds = %5
  %8 = icmp eq i64 %2, 0
  %9 = and i64 %2, 6
  %10 = icmp ne i64 %9, 0
  %11 = or i1 %8, %10
  br i1 %11, label %try_convert_to_bn.exit.thread, label %rb_integer_type_p.exit.i

rb_integer_type_p.exit.i:                         ; preds = %7
  %12 = inttoptr i64 %2 to ptr
  %13 = load i64, ptr %12, align 8, !tbaa !15
  %14 = and i64 %13, 31
  %15 = icmp eq i64 %14, 10
  br i1 %15, label %rb_integer_type_p.exit.thread.i, label %try_convert_to_bn.exit.thread

rb_integer_type_p.exit.thread.i:                  ; preds = %rb_integer_type_p.exit.i, %5
  %16 = load i64, ptr @cBN, align 8, !tbaa !6
  %17 = tail call i64 @rb_data_typed_object_wrap(i64 noundef %16, ptr noundef null, ptr noundef nonnull @ossl_bn_type) #11
  %18 = tail call fastcc ptr @integer_to_bnptr(i64 noundef %2, ptr noundef null)
  %19 = inttoptr i64 %17 to ptr
  %20 = getelementptr inbounds nuw i8, ptr %19, i64 32
  store ptr %18, ptr %20, align 8, !tbaa !10
  br label %try_convert_to_bn.exit

try_convert_to_bn.exit:                           ; preds = %1, %rb_integer_type_p.exit.thread.i
  %.08.i = phi i64 [ %2, %1 ], [ %17, %rb_integer_type_p.exit.thread.i ]
  %21 = icmp eq i64 %.08.i, 4
  br i1 %21, label %try_convert_to_bn.exit.thread, label %23

try_convert_to_bn.exit.thread:                    ; preds = %7, %rb_integer_type_p.exit.i, %try_convert_to_bn.exit
  %22 = load i64, ptr @rb_eTypeError, align 8, !tbaa !6
  tail call void (i64, ptr, ...) @ossl_raise(i64 noundef %22, ptr noundef nonnull @.str.1) #12
  unreachable

23:                                               ; preds = %try_convert_to_bn.exit
  %24 = tail call ptr @rb_check_typeddata(i64 noundef %.08.i, ptr noundef nonnull @ossl_bn_type) #11
  %.not = icmp eq ptr %24, null
  br i1 %.not, label %25, label %27

25:                                               ; preds = %23
  %26 = load i64, ptr @rb_eRuntimeError, align 8, !tbaa !6
  tail call void (i64, ptr, ...) @ossl_raise(i64 noundef %26, ptr noundef nonnull @.str) #12
  unreachable

27:                                               ; preds = %23
  store volatile i64 %.08.i, ptr %0, align 8, !tbaa !6
  ret ptr %24
}